Certificate:
    Data:
        Version: 3 (0x2)
        Serial Number: 41359 (0xa18f)
    Signature Algorithm: md5WithRSAEncryption
        Issuer: C=RU, ST=Moscow, O=Yandex Direct Issuing CA
        Validity
            Not Before: Jul 14 17:07:47 2015 GMT
            Not After : Oct 12 17:07:47 2015 GMT
        Subject: C=RU, ST=Moscow, OU=soap_direct_yandex, CN=29915828@passport.yandex.ru/emailAddress=programmatore@yandex.ru
        Subject Public Key Info:
            Public Key Algorithm: rsaEncryption
                Public-Key: (1024 bit)
                Modulus:
                    00:bd:03:cb:13:28:04:ef:9b:75:98:54:9b:7b:ce:
                    a6:d1:3b:f4:f1:d3:45:7e:b3:59:6c:b0:e6:16:ce:
                    c0:1f:6d:a9:44:20:01:f1:ca:1f:5a:3a:10:90:0a:
                    ae:b8:92:e2:cb:0d:35:ca:c8:dc:9e:c7:64:a2:4e:
                    7b:9a:4c:cc:d3:6c:12:8a:84:c0:06:5e:a9:45:c1:
                    a1:f3:cf:57:db:0d:4a:ed:7c:f5:fe:f9:23:4d:59:
                    81:0e:b8:71:7c:82:13:29:44:16:fa:64:85:3d:97:
                    bf:7e:05:b7:a4:97:36:db:b7:d1:54:33:4a:59:79:
                    26:f0:0a:34:5e:1f:dc:1c:0f
                Exponent: 65537 (0x10001)
        X509v3 extensions:
            X509v3 Basic Constraints: 
                CA:FALSE
            Netscape Comment: 
                OpenSSL Generated Certificate
            X509v3 Subject Key Identifier: 
                02:CD:E7:7C:A3:EB:7B:33:80:95:AD:58:96:1A:1E:4F:9F:D8:C2:E0
            X509v3 Authority Key Identifier: 
                keyid:0C:2B:A3:0D:2B:74:83:DC:4C:CB:3E:9F:99:F3:BC:D7:23:08:D1:6F
                DirName:/CN=YandexInternalRootCA
                serial:11:45:69:9A:00:00:00:00:00:14

    Signature Algorithm: md5WithRSAEncryption
         a8:36:04:f5:6e:b6:a0:9f:76:87:37:8c:53:ef:3d:54:c1:a4:
         ed:86:08:2f:5a:1e:0e:e9:30:07:01:d6:4f:16:76:12:f6:36:
         f5:4d:df:bf:4c:65:63:75:1f:97:75:93:4d:c0:1a:8f:ba:24:
         47:ae:c2:e0:52:68:a7:bc:05:39:f1:42:dd:03:ae:a1:51:76:
         6d:12:1a:9d:fc:a2:ae:97:a5:a6:77:6a:07:d1:0e:e7:20:21:
         d8:51:16:7a:4a:23:26:ac:26:76:e2:ec:e9:30:c5:6d:4c:52:
         b6:23:c0:89:74:55:96:70:95:64:8c:d9:39:b4:a2:93:2d:c0:
         4f:2f
-----BEGIN CERTIFICATE-----
MIIC8TCCAlqgAwIBAgIDAKGPMA0GCSqGSIb3DQEBBAUAMEExCzAJBgNVBAYTAlJV
MQ8wDQYDVQQIEwZNb3Njb3cxITAfBgNVBAoTGFlhbmRleCBEaXJlY3QgSXNzdWlu
ZyBDQTAeFw0xNTA3MTQxNzA3NDdaFw0xNTEwMTIxNzA3NDdaMIGJMQswCQYDVQQG
EwJSVTEPMA0GA1UECBMGTW9zY293MRswGQYDVQQLFBJzb2FwX2RpcmVjdF95YW5k
ZXgxJDAiBgNVBAMUGzI5OTE1ODI4QHBhc3Nwb3J0LnlhbmRleC5ydTEmMCQGCSqG
SIb3DQEJARYXcHJvZ3JhbW1hdG9yZUB5YW5kZXgucnUwgZ8wDQYJKoZIhvcNAQEB
BQADgY0AMIGJAoGBAL0DyxMoBO+bdZhUm3vOptE79PHTRX6zWWyw5hbOwB9tqUQg
AfHKH1o6EJAKrriS4ssNNcrI3J7HZKJOe5pMzNNsEoqEwAZeqUXBofPPV9sNSu18
9f75I01ZgQ64cXyCEylEFvpkhT2Xv34Ft6SXNtu30VQzSll5JvAKNF4f3BwPAgMB
AAGjga0wgaowCQYDVR0TBAIwADAsBglghkgBhvhCAQ0EHxYdT3BlblNTTCBHZW5l
cmF0ZWQgQ2VydGlmaWNhdGUwHQYDVR0OBBYEFALN53yj63szgJWtWJYaHk+f2MLg
MFAGA1UdIwRJMEeAFAwrow0rdIPcTMs+n5nzvNcjCNFvoSOkITAfMR0wGwYDVQQD
ExRZYW5kZXhJbnRlcm5hbFJvb3RDQYIKEUVpmgAAAAAAFDANBgkqhkiG9w0BAQQF
AAOBgQCoNgT1bragn3aHN4xT7z1UwaTthggvWh4O6TAHAdZPFnYS9jb1Td+/TGVj
dR+XdZNNwBqPuiRHrsLgUminvAU58ULdA66hUXZtEhqd/KKul6Wmd2oH0Q7nICHY
URZ6SiMmrCZ24uzpMMVtTFK2I8CJdFWWcJVkjNk5tKKTLcBPLw==
-----END CERTIFICATE-----
